target datalayout = "e-m:e-p270:32:32-p271:32:32-p272:64:64-i64:64-i128:128-f80:128-n8:16:32:64-S128"
target triple = "x86_64-pc-linux-gnu"

%struct.ident_t = type { i32, i32, i32, i32, ptr }
%"struct.faiss::HeapBlockResultHandler.32" = type { %"struct.faiss::BlockResultHandler.33", ptr, ptr, i64 }
%"struct.faiss::BlockResultHandler.33" = type { ptr, i64, i64, i64 }

@1 = private unnamed_addr constant %struct.ident_t { i32 0, i32 514, i32 0, i32 22, ptr @0 }, align 8

; Function Attrs: mustprogress nounwind uwtable
define linkonce_odr noundef zeroext i1 @_ZN5faiss4CMinIflE4cmp2Effll(float noundef %0, float noundef %1, i64 noundef %2, i64 noundef %3) #0 comdat align 2 {
  %5 = alloca float, align 4
  %6 = alloca float, align 4
  %7 = alloca i64, align 8
  %8 = alloca i64, align 8
  store float %0, ptr %5, align 4
  store float %1, ptr %6, align 4
  store i64 %2, ptr %7, align 8
  store i64 %3, ptr %8, align 8
  %9 = load float, ptr %5, align 4
  %10 = load float, ptr %6, align 4
  %11 = fcmp olt float %9, %10
  br i1 %11, label %22, label %12

12:                                               ; preds = %4
  %13 = load float, ptr %5, align 4
  %14 = load float, ptr %6, align 4
  %15 = fcmp oeq float %13, %14
  br i1 %15, label %16, label %20

16:                                               ; preds = %12
  %17 = load i64, ptr %7, align 8
  %18 = load i64, ptr %8, align 8
  %19 = icmp slt i64 %17, %18
  br label %20

20:                                               ; preds = %16, %12
  %21 = phi i1 [ false, %12 ], [ %19, %16 ]
  br label %22

22:                                               ; preds = %20, %4
  %23 = phi i1 [ true, %4 ], [ %21, %20 ]
  ret i1 %23
}

; Function Attrs: noreturn nounwind uwtable
define linkonce_odr hidden void @__clang_call_terminate(ptr noundef %0) #4 comdat {
  %2 = call ptr @__cxa_begin_catch(ptr %0) #11
  call void @_ZSt9terminatev() #17
  unreachable
}

; Function Attrs: mustprogress nounwind uwtable
define linkonce_odr void @_ZN5faiss16heap_replace_topINS_4CMinIflEEEEvmPNT_1TEPNS3_2TIES4_S6_(i64 noundef %0, ptr noundef %1, ptr noundef %2, float noundef %3, i64 noundef %4) #0 comdat {
  %6 = alloca i64, align 8
  %7 = alloca ptr, align 8
  %8 = alloca ptr, align 8
  %9 = alloca float, align 4
  %10 = alloca i64, align 8
  %11 = alloca i64, align 8
  %12 = alloca i64, align 8
  %13 = alloca i64, align 8
  store i64 %0, ptr %6, align 8
  store ptr %1, ptr %7, align 8
  store ptr %2, ptr %8, align 8
  store float %3, ptr %9, align 4
  store i64 %4, ptr %10, align 8
  %14 = load ptr, ptr %7, align 8
  %15 = getelementptr inbounds float, ptr %14, i32 -1
  store ptr %15, ptr %7, align 8
  %16 = load ptr, ptr %8, align 8
  %17 = getelementptr inbounds i64, ptr %16, i32 -1
  store ptr %17, ptr %8, align 8
  store i64 1, ptr %11, align 8
  br label %18

18:                                               ; preds = %108, %5
  %19 = load i64, ptr %11, align 8
  %20 = shl i64 %19, 1
  store i64 %20, ptr %12, align 8
  %21 = load i64, ptr %12, align 8
  %22 = add i64 %21, 1
  store i64 %22, ptr %13, align 8
  %23 = load i64, ptr %12, align 8
  %24 = load i64, ptr %6, align 8
  %25 = icmp ugt i64 %23, %24
  br i1 %25, label %26, label %27

26:                                               ; preds = %18
  br label %109

27:                                               ; preds = %18
  %28 = load i64, ptr %13, align 8
  %29 = load i64, ptr %6, align 8
  %30 = add i64 %29, 1
  %31 = icmp eq i64 %28, %30
  br i1 %31, label %50, label %32

32:                                               ; preds = %27
  %33 = load ptr, ptr %7, align 8
  %34 = load i64, ptr %12, align 8
  %35 = getelementptr inbounds float, ptr %33, i64 %34
  %36 = load float, ptr %35, align 4
  %37 = load ptr, ptr %7, align 8
  %38 = load i64, ptr %13, align 8
  %39 = getelementptr inbounds float, ptr %37, i64 %38
  %40 = load float, ptr %39, align 4
  %41 = load ptr, ptr %8, align 8
  %42 = load i64, ptr %12, align 8
  %43 = getelementptr inbounds i64, ptr %41, i64 %42
  %44 = load i64, ptr %43, align 8
  %45 = load ptr, ptr %8, align 8
  %46 = load i64, ptr %13, align 8
  %47 = getelementptr inbounds i64, ptr %45, i64 %46
  %48 = load i64, ptr %47, align 8
  %49 = call noundef zeroext i1 @_ZN5faiss4CMinIflE4cmp2Effll(float noundef %36, float noundef %40, i64 noundef %44, i64 noundef %48)
  br i1 %49, label %50, label %79

50:                                               ; preds = %32, %27
  %51 = load float, ptr %9, align 4
  %52 = load ptr, ptr %7, align 8
  %53 = load i64, ptr %12, align 8
  %54 = getelementptr inbounds float, ptr %52, i64 %53
  %55 = load float, ptr %54, align 4
  %56 = load i64, ptr %10, align 8
  %57 = load ptr, ptr %8, align 8
  %58 = load i64, ptr %12, align 8
  %59 = getelementptr inbounds i64, ptr %57, i64 %58
  %60 = load i64, ptr %59, align 8
  %61 = call noundef zeroext i1 @_ZN5faiss4CMinIflE4cmp2Effll(float noundef %51, float noundef %55, i64 noundef %56, i64 noundef %60)
  br i1 %61, label %62, label %63

62:                                               ; preds = %50
  br label %109

63:                                               ; preds = %50
  %64 = load ptr, ptr %7, align 8
  %65 = load i64, ptr %12, align 8
  %66 = getelementptr inbounds float, ptr %64, i64 %65
  %67 = load float, ptr %66, align 4
  %68 = load ptr, ptr %7, align 8
  %69 = load i64, ptr %11, align 8
  %70 = getelementptr inbounds float, ptr %68, i64 %69
  store float %67, ptr %70, align 4
  %71 = load ptr, ptr %8, align 8
  %72 = load i64, ptr %12, align 8
  %73 = getelementptr inbounds i64, ptr %71, i64 %72
  %74 = load i64, ptr %73, align 8
  %75 = load ptr, ptr %8, align 8
  %76 = load i64, ptr %11, align 8
  %77 = getelementptr inbounds i64, ptr %75, i64 %76
  store i64 %74, ptr %77, align 8
  %78 = load i64, ptr %12, align 8
  store i64 %78, ptr %11, align 8
  br label %108

79:                                               ; preds = %32
  %80 = load float, ptr %9, align 4
  %81 = load ptr, ptr %7, align 8
  %82 = load i64, ptr %13, align 8
  %83 = getelementptr inbounds float, ptr %81, i64 %82
  %84 = load float, ptr %83, align 4
  %85 = load i64, ptr %10, align 8
  %86 = load ptr, ptr %8, align 8
  %87 = load i64, ptr %13, align 8
  %88 = getelementptr inbounds i64, ptr %86, i64 %87
  %89 = load i64, ptr %88, align 8
  %90 = call noundef zeroext i1 @_ZN5faiss4CMinIflE4cmp2Effll(float noundef %80, float noundef %84, i64 noundef %85, i64 noundef %89)
  br i1 %90, label %91, label %92

91:                                               ; preds = %79
  br label %109

92:                                               ; preds = %79
  %93 = load ptr, ptr %7, align 8
  %94 = load i64, ptr %13, align 8
  %95 = getelementptr inbounds float, ptr %93, i64 %94
  %96 = load float, ptr %95, align 4
  %97 = load ptr, ptr %7, align 8
  %98 = load i64, ptr %11, align 8
  %99 = getelementptr inbounds float, ptr %97, i64 %98
  store float %96, ptr %99, align 4
  %100 = load ptr, ptr %8, align 8
  %101 = load i64, ptr %13, align 8
  %102 = getelementptr inbounds i64, ptr %100, i64 %101
  %103 = load i64, ptr %102, align 8
  %104 = load ptr, ptr %8, align 8
  %105 = load i64, ptr %11, align 8
  %106 = getelementptr inbounds i64, ptr %104, i64 %105
  store i64 %103, ptr %106, align 8
  %107 = load i64, ptr %13, align 8
  store i64 %107, ptr %11, align 8
  br label %108

108:                                              ; preds = %92, %63
  br label %18, !llvm.loop !29

109:                                              ; preds = %91, %62, %26
  %110 = load float, ptr %9, align 4
  %111 = load ptr, ptr %7, align 8
  %112 = load i64, ptr %11, align 8
  %113 = getelementptr inbounds float, ptr %111, i64 %112
  store float %110, ptr %113, align 4
  %114 = load i64, ptr %10, align 8
  %115 = load ptr, ptr %8, align 8
  %116 = load i64, ptr %11, align 8
  %117 = getelementptr inbounds i64, ptr %115, i64 %116
  store i64 %114, ptr %117, align 8
  ret void
}

; Function Attrs: mustprogress nounwind uwtable
define linkonce_odr noundef zeroext i1 @_ZN5faiss4CMinIflE3cmpEff(float noundef %0, float noundef %1) #0 comdat align 2 {
  %3 = alloca float, align 4
  %4 = alloca float, align 4
  store float %0, ptr %3, align 4
  store float %1, ptr %4, align 4
  %5 = load float, ptr %3, align 4
  %6 = load float, ptr %4, align 4
  %7 = fcmp olt float %5, %6
  ret i1 %7
}

; Function Attrs: norecurse nounwind uwtable
define internal void @_ZN5faiss22HeapBlockResultHandlerINS_4CMinIflEEE11add_resultsEmmPKf.omp_outlined(ptr noalias noundef %0, ptr noalias noundef %1, ptr noundef %2, ptr noundef nonnull align 8 dereferenceable(8) %3, ptr noundef nonnull align 8 dereferenceable(8) %4, ptr noundef nonnull align 8 dereferenceable(8) %5) #10 personality ptr @__gxx_personality_v0 {
  %7 = alloca ptr, align 8
  %8 = alloca ptr, align 8
  %9 = alloca ptr, align 8
  %10 = alloca ptr, align 8
  %11 = alloca ptr, align 8
  %12 = alloca ptr, align 8
  %13 = alloca i64, align 8
  %14 = alloca i64, align 8
  %15 = alloca i64, align 8
  %16 = alloca i64, align 8
  %17 = alloca i64, align 8
  %18 = alloca i64, align 8
  %19 = alloca i64, align 8
  %20 = alloca i64, align 8
  %21 = alloca i32, align 4
  %22 = alloca i64, align 8
  %23 = alloca ptr, align 8
  %24 = alloca ptr, align 8
  %25 = alloca ptr, align 8
  %26 = alloca float, align 4
  %27 = alloca i64, align 8
  %28 = alloca float, align 4
  store ptr %0, ptr %7, align 8
  store ptr %1, ptr %8, align 8
  store ptr %2, ptr %9, align 8
  store ptr %3, ptr %10, align 8
  store ptr %4, ptr %11, align 8
  store ptr %5, ptr %12, align 8
  %29 = load ptr, ptr %9, align 8
  %30 = load ptr, ptr %10, align 8
  %31 = load ptr, ptr %11, align 8
  %32 = load ptr, ptr %12, align 8
  %33 = getelementptr inbounds %"struct.faiss::BlockResultHandler.33", ptr %29, i32 0, i32 2
  %34 = load i64, ptr %33, align 8
  store i64 %34, ptr %14, align 8
  %35 = getelementptr inbounds %"struct.faiss::BlockResultHandler.33", ptr %29, i32 0, i32 3
  %36 = load i64, ptr %35, align 8
  store i64 %36, ptr %15, align 8
  %37 = load i64, ptr %15, align 8
  %38 = load i64, ptr %14, align 8
  %39 = sub i64 %37, %38
  %40 = sub i64 %39, 1
  %41 = add i64 %40, 1
  %42 = udiv i64 %41, 1
  %43 = sub i64 %42, 1
  store i64 %43, ptr %16, align 8
  %44 = load i64, ptr %14, align 8
  store i64 %44, ptr %17, align 8
  %45 = load i64, ptr %14, align 8
  %46 = load i64, ptr %15, align 8
  %47 = icmp ult i64 %45, %46
  br i1 %47, label %48, label %140

48:                                               ; preds = %6
  store i64 0, ptr %18, align 8
  %49 = load i64, ptr %16, align 8
  store i64 %49, ptr %19, align 8
  store i64 1, ptr %20, align 8
  store i32 0, ptr %21, align 4
  %50 = load ptr, ptr %7, align 8
  %51 = load i32, ptr %50, align 4
  call void @__kmpc_for_static_init_8u(ptr @1, i32 %51, i32 34, ptr %21, ptr %18, ptr %19, ptr %20, i64 1, i64 1)
  %52 = load i64, ptr %19, align 8
  %53 = load i64, ptr %16, align 8
  %54 = icmp ugt i64 %52, %53
  br i1 %54, label %55, label %57

55:                                               ; preds = %48
  %56 = load i64, ptr %16, align 8
  br label %59

57:                                               ; preds = %48
  %58 = load i64, ptr %19, align 8
  br label %59

59:                                               ; preds = %57, %55
  %60 = phi i64 [ %56, %55 ], [ %58, %57 ]
  store i64 %60, ptr %19, align 8
  %61 = load i64, ptr %18, align 8
  store i64 %61, ptr %13, align 8
  br label %62

62:                                               ; preds = %133, %59
  %63 = load i64, ptr %13, align 8
  %64 = load i64, ptr %19, align 8
  %65 = add i64 %64, 1
  %66 = icmp ult i64 %63, %65
  br i1 %66, label %67, label %136

67:                                               ; preds = %62
  %68 = load i64, ptr %14, align 8
  %69 = load i64, ptr %13, align 8
  %70 = mul i64 %69, 1
  %71 = add i64 %68, %70
  store i64 %71, ptr %22, align 8
  %72 = getelementptr inbounds %"struct.faiss::HeapBlockResultHandler.32", ptr %29, i32 0, i32 1
  %73 = load ptr, ptr %72, align 8
  %74 = load i64, ptr %22, align 8
  %75 = getelementptr inbounds %"struct.faiss::HeapBlockResultHandler.32", ptr %29, i32 0, i32 3
  %76 = load i64, ptr %75, align 8
  %77 = mul nsw i64 %74, %76
  %78 = getelementptr inbounds float, ptr %73, i64 %77
  store ptr %78, ptr %23, align 8
  %79 = getelementptr inbounds %"struct.faiss::HeapBlockResultHandler.32", ptr %29, i32 0, i32 2
  %80 = load ptr, ptr %79, align 8
  %81 = load i64, ptr %22, align 8
  %82 = getelementptr inbounds %"struct.faiss::HeapBlockResultHandler.32", ptr %29, i32 0, i32 3
  %83 = load i64, ptr %82, align 8
  %84 = mul nsw i64 %81, %83
  %85 = getelementptr inbounds i64, ptr %80, i64 %84
  store ptr %85, ptr %24, align 8
  %86 = load ptr, ptr %30, align 8
  %87 = load i64, ptr %31, align 8
  %88 = load i64, ptr %32, align 8
  %89 = sub i64 %87, %88
  %90 = load i64, ptr %22, align 8
  %91 = getelementptr inbounds %"struct.faiss::BlockResultHandler.33", ptr %29, i32 0, i32 2
  %92 = load i64, ptr %91, align 8
  %93 = sub i64 %90, %92
  %94 = mul i64 %89, %93
  %95 = getelementptr inbounds float, ptr %86, i64 %94
  %96 = load i64, ptr %32, align 8
  %97 = sub i64 0, %96
  %98 = getelementptr inbounds float, ptr %95, i64 %97
  store ptr %98, ptr %25, align 8
  %99 = load ptr, ptr %23, align 8
  %100 = getelementptr inbounds float, ptr %99, i64 0
  %101 = load float, ptr %100, align 4
  store float %101, ptr %26, align 4
  %102 = load i64, ptr %32, align 8
  store i64 %102, ptr %27, align 8
  br label %103

103:                                              ; preds = %128, %67
  %104 = load i64, ptr %27, align 8
  %105 = load i64, ptr %31, align 8
  %106 = icmp ult i64 %104, %105
  br i1 %106, label %107, label %131

107:                                              ; preds = %103
  %108 = load ptr, ptr %25, align 8
  %109 = load i64, ptr %27, align 8
  %110 = getelementptr inbounds float, ptr %108, i64 %109
  %111 = load float, ptr %110, align 4
  store float %111, ptr %28, align 4
  %112 = load float, ptr %26, align 4
  %113 = load float, ptr %28, align 4
  %114 = invoke noundef zeroext i1 @_ZN5faiss4CMinIflE3cmpEff(float noundef %112, float noundef %113)
          to label %115 unwind label %141

115:                                              ; preds = %107
  br i1 %114, label %116, label %127

116:                                              ; preds = %115
  %117 = getelementptr inbounds %"struct.faiss::HeapBlockResultHandler.32", ptr %29, i32 0, i32 3
  %118 = load i64, ptr %117, align 8
  %119 = load ptr, ptr %23, align 8
  %120 = load ptr, ptr %24, align 8
  %121 = load float, ptr %28, align 4
  %122 = load i64, ptr %27, align 8
  invoke void @_ZN5faiss16heap_replace_topINS_4CMinIflEEEEvmPNT_1TEPNS3_2TIES4_S6_(i64 noundef %118, ptr noundef %119, ptr noundef %120, float noundef %121, i64 noundef %122)
          to label %123 unwind label %141

123:                                              ; preds = %116
  %124 = load ptr, ptr %23, align 8
  %125 = getelementptr inbounds float, ptr %124, i64 0
  %126 = load float, ptr %125, align 4
  store float %126, ptr %26, align 4
  br label %127

127:                                              ; preds = %123, %115
  br label %128

128:                                              ; preds = %127
  %129 = load i64, ptr %27, align 8
  %130 = add i64 %129, 1
  store i64 %130, ptr %27, align 8
  br label %103, !llvm.loop !28

131:                                              ; preds = %103
  br label %132

132:                                              ; preds = %131
  br label %133

133:                                              ; preds = %132
  %134 = load i64, ptr %13, align 8
  %135 = add i64 %134, 1
  store i64 %135, ptr %13, align 8
  br label %62

136:                                              ; preds = %62
  br label %137

137:                                              ; preds = %136
  %138 = load ptr, ptr %7, align 8
  %139 = load i32, ptr %138, align 4
  call void @__kmpc_for_static_fini(ptr @1, i32 %139)
  br label %140

140:                                              ; preds = %137, %6
  ret void

141:                                              ; preds = %116, %107
  %142 = landingpad { ptr, i32 }
          catch ptr null
  %143 = extractvalue { ptr, i32 } %142, 0
  call void @__clang_call_terminate(ptr %143) #17
  unreachable
}